target datalayout = "e-m:e-p270:32:32-p271:32:32-p272:64:64-i64:64-i128:128-f80:128-n8:16:32:64-S128"
target triple = "x86_64-pc-linux-gnu"

%struct.t_commrec = type <{ i32, i32, i32, i32, ptr, ptr, i32, [4 x i8], ptr, i32, i32, %struct.gmx_nodecomm_t, %"class.std::unique_ptr.16", ptr, i32, [4 x i8] }>
%struct.gmx_nodecomm_t = type { i8, ptr, i32, ptr }
%"class.std::unique_ptr.16" = type { %"struct.std::__uniq_ptr_data.17" }
%"struct.std::__uniq_ptr_data.17" = type { %"class.std::__uniq_ptr_impl.18" }
%"class.std::__uniq_ptr_impl.18" = type { %"class.std::tuple.19" }
%"class.std::tuple.19" = type { %"struct.std::_Tuple_impl.20" }
%"struct.std::_Tuple_impl.20" = type { %"struct.std::_Head_base.23" }
%"struct.std::_Head_base.23" = type { ptr }
%struct.gmx_domdec_t = type { i32, ptr, %"class.gmx::BasicVector", i32, %"class.gmx::BasicVector", i32, i32, i8, ptr, i32, [8 x ptr], %struct.UnitCellInfo, [3 x i32], i32, %"class.gmx::BasicVector", [3 x [2 x i32]], %"class.std::unique_ptr.24", %"class.std::unique_ptr.32", i8, %"class.std::unique_ptr.40", %"class.std::unique_ptr.48", %"class.std::vector", %"class.std::unique_ptr.56", %"class.std::unique_ptr.48", i32, %"class.std::vector", %"class.std::unique_ptr.64", %"class.std::unique_ptr.72", i64, ptr, %"class.std::unique_ptr.80", %"class.std::vector.88", [3 x %"class.std::vector.90"] }
%struct.UnitCellInfo = type <{ i32, i32, i8, i8, [2 x i8] }>
%"class.gmx::BasicVector" = type { [3 x i32] }
%"class.std::unique_ptr.24" = type { %"struct.std::__uniq_ptr_data.25" }
%"struct.std::__uniq_ptr_data.25" = type { %"class.std::__uniq_ptr_impl.26" }
%"class.std::__uniq_ptr_impl.26" = type { %"class.std::tuple.27" }
%"class.std::tuple.27" = type { %"struct.std::_Tuple_impl.28" }
%"struct.std::_Tuple_impl.28" = type { %"struct.std::_Head_base.31" }
%"struct.std::_Head_base.31" = type { ptr }
%"class.std::unique_ptr.32" = type { %"struct.std::__uniq_ptr_data.33" }
%"struct.std::__uniq_ptr_data.33" = type { %"class.std::__uniq_ptr_impl.34" }
%"class.std::__uniq_ptr_impl.34" = type { %"class.std::tuple.35" }
%"class.std::tuple.35" = type { %"struct.std::_Tuple_impl.36" }
%"struct.std::_Tuple_impl.36" = type { %"struct.std::_Head_base.39" }
%"struct.std::_Head_base.39" = type { ptr }
%"class.std::unique_ptr.40" = type { %"struct.std::__uniq_ptr_data.41" }
%"struct.std::__uniq_ptr_data.41" = type { %"class.std::__uniq_ptr_impl.42" }
%"class.std::__uniq_ptr_impl.42" = type { %"class.std::tuple.43" }
%"class.std::tuple.43" = type { %"struct.std::_Tuple_impl.44" }
%"struct.std::_Tuple_impl.44" = type { %"struct.std::_Head_base.47" }
%"struct.std::_Head_base.47" = type { ptr }
%"class.std::unique_ptr.56" = type { %"struct.std::__uniq_ptr_data.57" }
%"struct.std::__uniq_ptr_data.57" = type { %"class.std::__uniq_ptr_impl.58" }
%"class.std::__uniq_ptr_impl.58" = type { %"class.std::tuple.59" }
%"class.std::tuple.59" = type { %"struct.std::_Tuple_impl.60" }
%"struct.std::_Tuple_impl.60" = type { %"struct.std::_Head_base.63" }
%"struct.std::_Head_base.63" = type { ptr }
%"class.std::unique_ptr.48" = type { %"struct.std::__uniq_ptr_data.49" }
%"struct.std::__uniq_ptr_data.49" = type { %"class.std::__uniq_ptr_impl.50" }
%"class.std::__uniq_ptr_impl.50" = type { %"class.std::tuple.51" }
%"class.std::tuple.51" = type { %"struct.std::_Tuple_impl.52" }
%"struct.std::_Tuple_impl.52" = type { %"struct.std::_Head_base.55" }
%"struct.std::_Head_base.55" = type { ptr }
%"class.std::vector" = type { %"struct.std::_Vector_base" }
%"struct.std::_Vector_base" = type { %"struct.std::_Vector_base<int, std::allocator<int>>::_Vector_impl" }
%"struct.std::_Vector_base<int, std::allocator<int>>::_Vector_impl" = type { %"struct.std::_Vector_base<int, std::allocator<int>>::_Vector_impl_data" }
%"struct.std::_Vector_base<int, std::allocator<int>>::_Vector_impl_data" = type { ptr, ptr, ptr }
%"class.std::unique_ptr.64" = type { %"struct.std::__uniq_ptr_data.65" }
%"struct.std::__uniq_ptr_data.65" = type { %"class.std::__uniq_ptr_impl.66" }
%"class.std::__uniq_ptr_impl.66" = type { %"class.std::tuple.67" }
%"class.std::tuple.67" = type { %"struct.std::_Tuple_impl.68" }
%"struct.std::_Tuple_impl.68" = type { %"struct.std::_Head_base.71" }
%"struct.std::_Head_base.71" = type { ptr }
%"class.std::unique_ptr.72" = type { %"struct.std::__uniq_ptr_data.73" }
%"struct.std::__uniq_ptr_data.73" = type { %"class.std::__uniq_ptr_impl.74" }
%"class.std::__uniq_ptr_impl.74" = type { %"class.std::tuple.75" }
%"class.std::tuple.75" = type { %"struct.std::_Tuple_impl.76" }
%"struct.std::_Tuple_impl.76" = type { %"struct.std::_Head_base.79" }
%"struct.std::_Head_base.79" = type { ptr }
%"class.std::unique_ptr.80" = type { %"struct.std::__uniq_ptr_data.81" }
%"struct.std::__uniq_ptr_data.81" = type { %"class.std::__uniq_ptr_impl.82" }
%"class.std::__uniq_ptr_impl.82" = type { %"class.std::tuple.83" }
%"class.std::tuple.83" = type { %"struct.std::_Tuple_impl.84" }
%"struct.std::_Tuple_impl.84" = type { %"struct.std::_Head_base.87" }
%"struct.std::_Head_base.87" = type { ptr }
%"class.std::vector.88" = type { %"struct.std::_Vector_base.89" }
%"struct.std::_Vector_base.89" = type { %"struct.std::_Vector_base<gmx::BasicVector<float>, gmx::Allocator<gmx::BasicVector<float>, gmx::HostAllocationPolicy>>::_Vector_impl" }
%"struct.std::_Vector_base<gmx::BasicVector<float>, gmx::Allocator<gmx::BasicVector<float>, gmx::HostAllocationPolicy>>::_Vector_impl" = type { %"class.gmx::Allocator", %"struct.std::_Vector_base<gmx::BasicVector<float>, gmx::Allocator<gmx::BasicVector<float>, gmx::HostAllocationPolicy>>::_Vector_impl_data" }
%"class.gmx::Allocator" = type { %"class.gmx::HostAllocationPolicy" }
%"class.gmx::HostAllocationPolicy" = type { i32 }
%"struct.std::_Vector_base<gmx::BasicVector<float>, gmx::Allocator<gmx::BasicVector<float>, gmx::HostAllocationPolicy>>::_Vector_impl_data" = type { ptr, ptr, ptr }
%"class.std::vector.90" = type { %"struct.std::_Vector_base.91" }
%"struct.std::_Vector_base.91" = type { %"struct.std::_Vector_base<std::unique_ptr<gmx::GpuHaloExchange>, std::allocator<std::unique_ptr<gmx::GpuHaloExchange>>>::_Vector_impl" }
%"struct.std::_Vector_base<std::unique_ptr<gmx::GpuHaloExchange>, std::allocator<std::unique_ptr<gmx::GpuHaloExchange>>>::_Vector_impl" = type { %"struct.std::_Vector_base<std::unique_ptr<gmx::GpuHaloExchange>, std::allocator<std::unique_ptr<gmx::GpuHaloExchange>>>::_Vector_impl_data" }
%"struct.std::_Vector_base<std::unique_ptr<gmx::GpuHaloExchange>, std::allocator<std::unique_ptr<gmx::GpuHaloExchange>>>::_Vector_impl_data" = type { ptr, ptr, ptr }
%struct.gmx_pme_comm_n_box_t = type { i32, [3 x [3 x float]], i32, i32, float, float, i32, i64, [3 x i32], float, float }

@TMPI_BYTE = external constant ptr, align 8

; Function Attrs: mustprogress nounwind uwtable
define internal void @_ZL9copy_ivecPKiPi(ptr noundef %0, ptr noundef %1) #1 {
  %3 = alloca ptr, align 8
  %4 = alloca ptr, align 8
  store ptr %0, ptr %3, align 8
  store ptr %1, ptr %4, align 8
  %5 = load ptr, ptr %3, align 8
  %6 = getelementptr inbounds i32, ptr %5, i64 0
  %7 = load i32, ptr %6, align 4
  %8 = load ptr, ptr %4, align 8
  %9 = getelementptr inbounds i32, ptr %8, i64 0
  store i32 %7, ptr %9, align 4
  %10 = load ptr, ptr %3, align 8
  %11 = getelementptr inbounds i32, ptr %10, i64 1
  %12 = load i32, ptr %11, align 4
  %13 = load ptr, ptr %4, align 8
  %14 = getelementptr inbounds i32, ptr %13, i64 1
  store i32 %12, ptr %14, align 4
  %15 = load ptr, ptr %3, align 8
  %16 = getelementptr inbounds i32, ptr %15, i64 2
  %17 = load i32, ptr %16, align 4
  %18 = load ptr, ptr %4, align 8
  %19 = getelementptr inbounds i32, ptr %18, i64 2
  store i32 %17, ptr %19, align 4
  ret void
}

; Function Attrs: mustprogress uwtable
define void @_Z23gmx_pme_send_switchgridPK9t_commrecPiff(ptr noundef %0, ptr noundef %1, float noundef %2, float noundef %3) #0 {
  %5 = alloca ptr, align 8
  %6 = alloca ptr, align 8
  %7 = alloca float, align 4
  %8 = alloca float, align 4
  %9 = alloca %struct.gmx_pme_comm_n_box_t, align 8
  store ptr %0, ptr %5, align 8
  store ptr %1, ptr %6, align 8
  store float %2, ptr %7, align 4
  store float %3, ptr %8, align 4
  %10 = load ptr, ptr %5, align 8
  %11 = getelementptr inbounds %struct.t_commrec, ptr %10, i32 0, i32 13
  %12 = load ptr, ptr %11, align 8
  %13 = getelementptr inbounds %struct.gmx_domdec_t, ptr %12, i32 0, i32 7
  %14 = load i8, ptr %13, align 4
  %15 = trunc i8 %14 to i1
  br i1 %15, label %16, label %35

16:                                               ; preds = %4
  %17 = getelementptr inbounds %struct.gmx_pme_comm_n_box_t, ptr %9, i32 0, i32 6
  store i32 2048, ptr %17, align 8
  %18 = load ptr, ptr %6, align 8
  %19 = getelementptr inbounds %struct.gmx_pme_comm_n_box_t, ptr %9, i32 0, i32 8
  %20 = getelementptr inbounds [3 x i32], ptr %19, i64 0, i64 0
  call void @_ZL9copy_ivecPKiPi(ptr noundef %18, ptr noundef %20)
  %21 = load float, ptr %7, align 4
  %22 = getelementptr inbounds %struct.gmx_pme_comm_n_box_t, ptr %9, i32 0, i32 9
  store float %21, ptr %22, align 4
  %23 = load float, ptr %8, align 4
  %24 = getelementptr inbounds %struct.gmx_pme_comm_n_box_t, ptr %9, i32 0, i32 10
  store float %23, ptr %24, align 8
  %25 = load ptr, ptr @TMPI_BYTE, align 8
  %26 = load ptr, ptr %5, align 8
  %27 = getelementptr inbounds %struct.t_commrec, ptr %26, i32 0, i32 13
  %28 = load ptr, ptr %27, align 8
  %29 = getelementptr inbounds %struct.gmx_domdec_t, ptr %28, i32 0, i32 6
  %30 = load i32, ptr %29, align 8
  %31 = load ptr, ptr %5, align 8
  %32 = getelementptr inbounds %struct.t_commrec, ptr %31, i32 0, i32 4
  %33 = load ptr, ptr %32, align 8
  %34 = call noundef i32 @_Z9tMPI_SendPKviP14tmpi_datatype_iiP10tmpi_comm_(ptr noundef %9, i32 noundef 96, ptr noundef %25, i32 noundef %30, i32 noundef 9, ptr noundef %33)
  br label %35

35:                                               ; preds = %16, %4
  ret void
}