; Function Attrs: mustprogress uwtable
define void @_Z23gmx_pme_send_switchgridPK9t_commrecPiff(ptr nocapture noundef readonly %0, ptr nocapture noundef readonly %1, float noundef %2, float noundef %3) local_unnamed_addr #0 {
  %5 = alloca %struct.gmx_pme_comm_n_box_t, align 8
  %6 = getelementptr inbounds i8, ptr %0, i64 96
  %7 = load ptr, ptr %6, align 8
  %8 = getelementptr inbounds i8, ptr %7, i64 52
  %9 = load i8, ptr %8, align 4
  %10 = trunc i8 %9 to i1
  br i1 %10, label %11, label %26

11:                                               ; preds = %4
  %12 = getelementptr inbounds i8, ptr %5, i64 56
  store i32 2048, ptr %12, align 8
  %13 = getelementptr inbounds i8, ptr %5, i64 72
  %14 = load <2 x i32>, ptr %1, align 4
  store <2 x i32> %14, ptr %13, align 8
  %15 = getelementptr inbounds i8, ptr %1, i64 8
  %16 = load i32, ptr %15, align 4
  %17 = getelementptr inbounds i8, ptr %5, i64 80
  store i32 %16, ptr %17, align 8
  %18 = getelementptr inbounds i8, ptr %5, i64 84
  store float %2, ptr %18, align 4
  %19 = getelementptr inbounds i8, ptr %5, i64 88
  store float %3, ptr %19, align 8
  %20 = load ptr, ptr @TMPI_BYTE, align 8
  %21 = getelementptr inbounds i8, ptr %7, i64 48
  %22 = load i32, ptr %21, align 8
  %23 = getelementptr inbounds i8, ptr %0, i64 16
  %24 = load ptr, ptr %23, align 8
  %25 = call noundef i32 @_Z9tMPI_SendPKviP14tmpi_datatype_iiP10tmpi_comm_(ptr noundef nonnull %5, i32 noundef 96, ptr noundef %20, i32 noundef %22, i32 noundef 9, ptr noundef %24)
  br label %26

26:                                               ; preds = %11, %4
  ret void
}